target datalayout = "e-m:e-p270:32:32-p271:32:32-p272:64:64-i64:64-i128:128-f80:128-n8:16:32:64-S128"
target triple = "x86_64-pc-linux-gnu"

%union.pthread_mutex_t = type { %struct.__pthread_mutex_s }
%struct.__pthread_mutex_s = type { i32, i32, i32, i32, i32, i16, i16, %struct.__pthread_internal_list }
%struct.__pthread_internal_list = type { ptr, ptr }
%struct.threadpool_tag = type { %union.pthread_mutex_t, %union.pthread_cond_t, %union.pthread_attr_t, %union.pthread_cond_t, %union.pthread_cond_t, %union.pthread_cond_t, i32, i32, i32, i32, i32, i32, i32, ptr, ptr, ptr, ptr }
%union.pthread_attr_t = type { i64, [48 x i8] }
%union.pthread_cond_t = type { %struct.__pthread_cond_s }
%struct.__pthread_cond_s = type { %union.__atomic_wide_counter, %union.__atomic_wide_counter, [2 x i32], [2 x i32], i32, i32, [2 x i32] }
%union.__atomic_wide_counter = type { i64 }
%struct.work_queue_tag = type { ptr, ptr, i32, i32 }

; Function Attrs: nounwind uwtable
define internal ptr @work_queue_new() #0 {
  %1 = alloca ptr, align 8
  %2 = alloca ptr, align 8
  %3 = call noalias ptr @malloc(i64 noundef 24) #11
  store ptr %3, ptr %2, align 8
  %4 = load ptr, ptr %2, align 8
  %5 = icmp ne ptr %4, null
  br i1 %5, label %7, label %6

6:                                                ; preds = %0
  store ptr null, ptr %1, align 8
  br label %17

7:                                                ; preds = %0
  %8 = load ptr, ptr %2, align 8
  %9 = getelementptr inbounds %struct.work_queue_tag, ptr %8, i32 0, i32 1
  store ptr null, ptr %9, align 8
  %10 = load ptr, ptr %2, align 8
  %11 = getelementptr inbounds %struct.work_queue_tag, ptr %10, i32 0, i32 0
  store ptr null, ptr %11, align 8
  %12 = load ptr, ptr %2, align 8
  %13 = getelementptr inbounds %struct.work_queue_tag, ptr %12, i32 0, i32 2
  store i32 0, ptr %13, align 8
  %14 = load ptr, ptr %2, align 8
  %15 = getelementptr inbounds %struct.work_queue_tag, ptr %14, i32 0, i32 3
  store i32 0, ptr %15, align 4
  %16 = load ptr, ptr %2, align 8
  store ptr %16, ptr %1, align 8
  br label %17

17:                                               ; preds = %7, %6
  %18 = load ptr, ptr %1, align 8
  ret ptr %18
}

; Function Attrs: nounwind uwtable
define dso_local ptr @thrmgr_new(i32 noundef %0, i32 noundef %1, i32 noundef %2, ptr noundef %3) #0 {
  %5 = alloca ptr, align 8
  %6 = alloca i32, align 4
  %7 = alloca i32, align 4
  %8 = alloca i32, align 4
  %9 = alloca ptr, align 8
  %10 = alloca ptr, align 8
  store i32 %0, ptr %6, align 4
  store i32 %1, ptr %7, align 4
  store i32 %2, ptr %8, align 4
  store ptr %3, ptr %9, align 8
  %11 = load i32, ptr %6, align 4
  %12 = icmp sle i32 %11, 0
  br i1 %12, label %13, label %14

13:                                               ; preds = %4
  store ptr null, ptr %5, align 8
  br label %221

14:                                               ; preds = %4
  %15 = call noalias ptr @malloc(i64 noundef 352) #11
  store ptr %15, ptr %10, align 8
  %16 = load ptr, ptr %10, align 8
  %17 = icmp ne ptr %16, null
  br i1 %17, label %19, label %18

18:                                               ; preds = %14
  store ptr null, ptr %5, align 8
  br label %221

19:                                               ; preds = %14
  %20 = call ptr @work_queue_new()
  %21 = load ptr, ptr %10, align 8
  %22 = getelementptr inbounds %struct.threadpool_tag, ptr %21, i32 0, i32 16
  store ptr %20, ptr %22, align 8
  %23 = load ptr, ptr %10, align 8
  %24 = getelementptr inbounds %struct.threadpool_tag, ptr %23, i32 0, i32 16
  %25 = load ptr, ptr %24, align 8
  %26 = icmp ne ptr %25, null
  br i1 %26, label %29, label %27

27:                                               ; preds = %19
  %28 = load ptr, ptr %10, align 8
  call void @free(ptr noundef %28) #8
  store ptr null, ptr %5, align 8
  br label %221

29:                                               ; preds = %19
  %30 = call ptr @work_queue_new()
  %31 = load ptr, ptr %10, align 8
  %32 = getelementptr inbounds %struct.threadpool_tag, ptr %31, i32 0, i32 15
  store ptr %30, ptr %32, align 8
  %33 = load ptr, ptr %10, align 8
  %34 = getelementptr inbounds %struct.threadpool_tag, ptr %33, i32 0, i32 15
  %35 = load ptr, ptr %34, align 8
  %36 = icmp ne ptr %35, null
  br i1 %36, label %42, label %37

37:                                               ; preds = %29
  %38 = load ptr, ptr %10, align 8
  %39 = getelementptr inbounds %struct.threadpool_tag, ptr %38, i32 0, i32 16
  %40 = load ptr, ptr %39, align 8
  call void @free(ptr noundef %40) #8
  %41 = load ptr, ptr %10, align 8
  call void @free(ptr noundef %41) #8
  store ptr null, ptr %5, align 8
  br label %221

42:                                               ; preds = %29
  %43 = load i32, ptr %8, align 4
  %44 = load ptr, ptr %10, align 8
  %45 = getelementptr inbounds %struct.threadpool_tag, ptr %44, i32 0, i32 8
  store i32 %43, ptr %45, align 8
  %46 = load i32, ptr %6, align 4
  %47 = load ptr, ptr %10, align 8
  %48 = getelementptr inbounds %struct.threadpool_tag, ptr %47, i32 0, i32 7
  store i32 %46, ptr %48, align 4
  %49 = load ptr, ptr %10, align 8
  %50 = getelementptr inbounds %struct.threadpool_tag, ptr %49, i32 0, i32 9
  store i32 0, ptr %50, align 4
  %51 = load ptr, ptr %10, align 8
  %52 = getelementptr inbounds %struct.threadpool_tag, ptr %51, i32 0, i32 10
  store i32 0, ptr %52, align 8
  %53 = load ptr, ptr %10, align 8
  %54 = getelementptr inbounds %struct.threadpool_tag, ptr %53, i32 0, i32 11
  store i32 0, ptr %54, align 4
  %55 = load i32, ptr %7, align 4
  %56 = load ptr, ptr %10, align 8
  %57 = getelementptr inbounds %struct.threadpool_tag, ptr %56, i32 0, i32 12
  store i32 %55, ptr %57, align 8
  %58 = load ptr, ptr %9, align 8
  %59 = load ptr, ptr %10, align 8
  %60 = getelementptr inbounds %struct.threadpool_tag, ptr %59, i32 0, i32 14
  store ptr %58, ptr %60, align 8
  %61 = load ptr, ptr %10, align 8
  %62 = getelementptr inbounds %struct.threadpool_tag, ptr %61, i32 0, i32 13
  store ptr null, ptr %62, align 8
  %63 = load ptr, ptr %10, align 8
  %64 = getelementptr inbounds %struct.threadpool_tag, ptr %63, i32 0, i32 0
  %65 = call i32 @pthread_mutex_init(ptr noundef %64, ptr noundef null) #8
  %66 = icmp ne i32 %65, 0
  br i1 %66, label %67, label %75

67:                                               ; preds = %42
  %68 = load ptr, ptr %10, align 8
  %69 = getelementptr inbounds %struct.threadpool_tag, ptr %68, i32 0, i32 16
  %70 = load ptr, ptr %69, align 8
  call void @free(ptr noundef %70) #8
  %71 = load ptr, ptr %10, align 8
  %72 = getelementptr inbounds %struct.threadpool_tag, ptr %71, i32 0, i32 15
  %73 = load ptr, ptr %72, align 8
  call void @free(ptr noundef %73) #8
  %74 = load ptr, ptr %10, align 8
  call void @free(ptr noundef %74) #8
  store ptr null, ptr %5, align 8
  br label %221

75:                                               ; preds = %42
  %76 = load ptr, ptr %10, align 8
  %77 = getelementptr inbounds %struct.threadpool_tag, ptr %76, i32 0, i32 1
  %78 = call i32 @pthread_cond_init(ptr noundef %77, ptr noundef null) #8
  %79 = icmp ne i32 %78, 0
  br i1 %79, label %80, label %91

80:                                               ; preds = %75
  %81 = load ptr, ptr %10, align 8
  %82 = getelementptr inbounds %struct.threadpool_tag, ptr %81, i32 0, i32 0
  %83 = call i32 @pthread_mutex_destroy(ptr noundef %82) #8
  %84 = load ptr, ptr %10, align 8
  %85 = getelementptr inbounds %struct.threadpool_tag, ptr %84, i32 0, i32 16
  %86 = load ptr, ptr %85, align 8
  call void @free(ptr noundef %86) #8
  %87 = load ptr, ptr %10, align 8
  %88 = getelementptr inbounds %struct.threadpool_tag, ptr %87, i32 0, i32 15
  %89 = load ptr, ptr %88, align 8
  call void @free(ptr noundef %89) #8
  %90 = load ptr, ptr %10, align 8
  call void @free(ptr noundef %90) #8
  store ptr null, ptr %5, align 8
  br label %221

91:                                               ; preds = %75
  %92 = load ptr, ptr %10, align 8
  %93 = getelementptr inbounds %struct.threadpool_tag, ptr %92, i32 0, i32 4
  %94 = call i32 @pthread_cond_init(ptr noundef %93, ptr noundef null) #8
  %95 = icmp ne i32 %94, 0
  br i1 %95, label %96, label %110

96:                                               ; preds = %91
  %97 = load ptr, ptr %10, align 8
  %98 = getelementptr inbounds %struct.threadpool_tag, ptr %97, i32 0, i32 1
  %99 = call i32 @pthread_cond_destroy(ptr noundef %98) #8
  %100 = load ptr, ptr %10, align 8
  %101 = getelementptr inbounds %struct.threadpool_tag, ptr %100, i32 0, i32 0
  %102 = call i32 @pthread_mutex_destroy(ptr noundef %101) #8
  %103 = load ptr, ptr %10, align 8
  %104 = getelementptr inbounds %struct.threadpool_tag, ptr %103, i32 0, i32 16
  %105 = load ptr, ptr %104, align 8
  call void @free(ptr noundef %105) #8
  %106 = load ptr, ptr %10, align 8
  %107 = getelementptr inbounds %struct.threadpool_tag, ptr %106, i32 0, i32 15
  %108 = load ptr, ptr %107, align 8
  call void @free(ptr noundef %108) #8
  %109 = load ptr, ptr %10, align 8
  call void @free(ptr noundef %109) #8
  store ptr null, ptr %5, align 8
  br label %221

110:                                              ; preds = %91
  %111 = load ptr, ptr %10, align 8
  %112 = getelementptr inbounds %struct.threadpool_tag, ptr %111, i32 0, i32 5
  %113 = call i32 @pthread_cond_init(ptr noundef %112, ptr noundef null) #8
  %114 = icmp ne i32 %113, 0
  br i1 %114, label %115, label %132

115:                                              ; preds = %110
  %116 = load ptr, ptr %10, align 8
  %117 = getelementptr inbounds %struct.threadpool_tag, ptr %116, i32 0, i32 4
  %118 = call i32 @pthread_cond_destroy(ptr noundef %117) #8
  %119 = load ptr, ptr %10, align 8
  %120 = getelementptr inbounds %struct.threadpool_tag, ptr %119, i32 0, i32 1
  %121 = call i32 @pthread_cond_destroy(ptr noundef %120) #8
  %122 = load ptr, ptr %10, align 8
  %123 = getelementptr inbounds %struct.threadpool_tag, ptr %122, i32 0, i32 0
  %124 = call i32 @pthread_mutex_destroy(ptr noundef %123) #8
  %125 = load ptr, ptr %10, align 8
  %126 = getelementptr inbounds %struct.threadpool_tag, ptr %125, i32 0, i32 16
  %127 = load ptr, ptr %126, align 8
  call void @free(ptr noundef %127) #8
  %128 = load ptr, ptr %10, align 8
  %129 = getelementptr inbounds %struct.threadpool_tag, ptr %128, i32 0, i32 15
  %130 = load ptr, ptr %129, align 8
  call void @free(ptr noundef %130) #8
  %131 = load ptr, ptr %10, align 8
  call void @free(ptr noundef %131) #8
  store ptr null, ptr %5, align 8
  br label %221

132:                                              ; preds = %110
  %133 = load ptr, ptr %10, align 8
  %134 = getelementptr inbounds %struct.threadpool_tag, ptr %133, i32 0, i32 3
  %135 = call i32 @pthread_cond_init(ptr noundef %134, ptr noundef null) #8
  %136 = icmp ne i32 %135, 0
  br i1 %136, label %137, label %157

137:                                              ; preds = %132
  %138 = load ptr, ptr %10, align 8
  %139 = getelementptr inbounds %struct.threadpool_tag, ptr %138, i32 0, i32 4
  %140 = call i32 @pthread_cond_destroy(ptr noundef %139) #8
  %141 = load ptr, ptr %10, align 8
  %142 = getelementptr inbounds %struct.threadpool_tag, ptr %141, i32 0, i32 5
  %143 = call i32 @pthread_cond_destroy(ptr noundef %142) #8
  %144 = load ptr, ptr %10, align 8
  %145 = getelementptr inbounds %struct.threadpool_tag, ptr %144, i32 0, i32 1
  %146 = call i32 @pthread_cond_destroy(ptr noundef %145) #8
  %147 = load ptr, ptr %10, align 8
  %148 = getelementptr inbounds %struct.threadpool_tag, ptr %147, i32 0, i32 0
  %149 = call i32 @pthread_mutex_destroy(ptr noundef %148) #8
  %150 = load ptr, ptr %10, align 8
  %151 = getelementptr inbounds %struct.threadpool_tag, ptr %150, i32 0, i32 16
  %152 = load ptr, ptr %151, align 8
  call void @free(ptr noundef %152) #8
  %153 = load ptr, ptr %10, align 8
  %154 = getelementptr inbounds %struct.threadpool_tag, ptr %153, i32 0, i32 15
  %155 = load ptr, ptr %154, align 8
  call void @free(ptr noundef %155) #8
  %156 = load ptr, ptr %10, align 8
  call void @free(ptr noundef %156) #8
  store ptr null, ptr %5, align 8
  br label %221

157:                                              ; preds = %132
  %158 = load ptr, ptr %10, align 8
  %159 = getelementptr inbounds %struct.threadpool_tag, ptr %158, i32 0, i32 2
  %160 = call i32 @pthread_attr_init(ptr noundef %159) #8
  %161 = icmp ne i32 %160, 0
  br i1 %161, label %162, label %185

162:                                              ; preds = %157
  %163 = load ptr, ptr %10, align 8
  %164 = getelementptr inbounds %struct.threadpool_tag, ptr %163, i32 0, i32 4
  %165 = call i32 @pthread_cond_destroy(ptr noundef %164) #8
  %166 = load ptr, ptr %10, align 8
  %167 = getelementptr inbounds %struct.threadpool_tag, ptr %166, i32 0, i32 5
  %168 = call i32 @pthread_cond_destroy(ptr noundef %167) #8
  %169 = load ptr, ptr %10, align 8
  %170 = getelementptr inbounds %struct.threadpool_tag, ptr %169, i32 0, i32 3
  %171 = call i32 @pthread_cond_destroy(ptr noundef %170) #8
  %172 = load ptr, ptr %10, align 8
  %173 = getelementptr inbounds %struct.threadpool_tag, ptr %172, i32 0, i32 1
  %174 = call i32 @pthread_cond_destroy(ptr noundef %173) #8
  %175 = load ptr, ptr %10, align 8
  %176 = getelementptr inbounds %struct.threadpool_tag, ptr %175, i32 0, i32 0
  %177 = call i32 @pthread_mutex_destroy(ptr noundef %176) #8
  %178 = load ptr, ptr %10, align 8
  %179 = getelementptr inbounds %struct.threadpool_tag, ptr %178, i32 0, i32 16
  %180 = load ptr, ptr %179, align 8
  call void @free(ptr noundef %180) #8
  %181 = load ptr, ptr %10, align 8
  %182 = getelementptr inbounds %struct.threadpool_tag, ptr %181, i32 0, i32 15
  %183 = load ptr, ptr %182, align 8
  call void @free(ptr noundef %183) #8
  %184 = load ptr, ptr %10, align 8
  call void @free(ptr noundef %184) #8
  store ptr null, ptr %5, align 8
  br label %221

185:                                              ; preds = %157
  %186 = load ptr, ptr %10, align 8
  %187 = getelementptr inbounds %struct.threadpool_tag, ptr %186, i32 0, i32 2
  %188 = call i32 @pthread_attr_setdetachstate(ptr noundef %187, i32 noundef 1) #8
  %189 = icmp ne i32 %188, 0
  br i1 %189, label %190, label %216

190:                                              ; preds = %185
  %191 = load ptr, ptr %10, align 8
  %192 = getelementptr inbounds %struct.threadpool_tag, ptr %191, i32 0, i32 4
  %193 = call i32 @pthread_cond_destroy(ptr noundef %192) #8
  %194 = load ptr, ptr %10, align 8
  %195 = getelementptr inbounds %struct.threadpool_tag, ptr %194, i32 0, i32 5
  %196 = call i32 @pthread_cond_destroy(ptr noundef %195) #8
  %197 = load ptr, ptr %10, align 8
  %198 = getelementptr inbounds %struct.threadpool_tag, ptr %197, i32 0, i32 2
  %199 = call i32 @pthread_attr_destroy(ptr noundef %198) #8
  %200 = load ptr, ptr %10, align 8
  %201 = getelementptr inbounds %struct.threadpool_tag, ptr %200, i32 0, i32 3
  %202 = call i32 @pthread_cond_destroy(ptr noundef %201) #8
  %203 = load ptr, ptr %10, align 8
  %204 = getelementptr inbounds %struct.threadpool_tag, ptr %203, i32 0, i32 1
  %205 = call i32 @pthread_cond_destroy(ptr noundef %204) #8
  %206 = load ptr, ptr %10, align 8
  %207 = getelementptr inbounds %struct.threadpool_tag, ptr %206, i32 0, i32 0
  %208 = call i32 @pthread_mutex_destroy(ptr noundef %207) #8
  %209 = load ptr, ptr %10, align 8
  %210 = getelementptr inbounds %struct.threadpool_tag, ptr %209, i32 0, i32 16
  %211 = load ptr, ptr %210, align 8
  call void @free(ptr noundef %211) #8
  %212 = load ptr, ptr %10, align 8
  %213 = getelementptr inbounds %struct.threadpool_tag, ptr %212, i32 0, i32 15
  %214 = load ptr, ptr %213, align 8
  call void @free(ptr noundef %214) #8
  %215 = load ptr, ptr %10, align 8
  call void @free(ptr noundef %215) #8
  store ptr null, ptr %5, align 8
  br label %221

216:                                              ; preds = %185
  %217 = load ptr, ptr %10, align 8
  %218 = getelementptr inbounds %struct.threadpool_tag, ptr %217, i32 0, i32 6
  store i32 1, ptr %218, align 8
  %219 = load ptr, ptr %10, align 8
  call void @add_topools(ptr noundef %219)
  %220 = load ptr, ptr %10, align 8
  store ptr %220, ptr %5, align 8
  br label %221

221:                                              ; preds = %216, %190, %162, %137, %115, %96, %80, %67, %37, %27, %18, %13
  %222 = load ptr, ptr %5, align 8
  ret ptr %222
}