; Function Attrs: nounwind uwtable
define dso_local noundef ptr @thrmgr_new(i32 noundef %0, i32 noundef %1, i32 noundef %2, ptr noundef %3) local_unnamed_addr #0 {
  %5 = icmp slt i32 %0, 1
  br i1 %5, label %83, label %6

6:                                                ; preds = %4
  %7 = tail call noalias dereferenceable_or_null(352) ptr @malloc(i64 noundef 352) #15
  %.not = icmp eq ptr %7, null
  br i1 %.not, label %83, label %work_queue_new.exit

work_queue_new.exit:                              ; preds = %6
  %calloc.i = tail call dereferenceable_or_null(24) ptr @calloc(i64 1, i64 24)
  %.not.i = icmp eq ptr %calloc.i, null
  %8 = getelementptr inbounds i8, ptr %7, i64 344
  store ptr %calloc.i, ptr %8, align 8
  br i1 %.not.i, label %9, label %work_queue_new.exit86

9:                                                ; preds = %work_queue_new.exit
  tail call void @free(ptr noundef nonnull %7) #12
  br label %83

work_queue_new.exit86:                            ; preds = %work_queue_new.exit
  %calloc.i84 = tail call dereferenceable_or_null(24) ptr @calloc(i64 1, i64 24)
  %.not.i85 = icmp eq ptr %calloc.i84, null
  %10 = getelementptr inbounds i8, ptr %7, i64 336
  store ptr %calloc.i84, ptr %10, align 8
  br i1 %.not.i85, label %11, label %12

11:                                               ; preds = %work_queue_new.exit86
  tail call void @free(ptr noundef nonnull %calloc.i) #12
  tail call void @free(ptr noundef nonnull %7) #12
  br label %83

12:                                               ; preds = %work_queue_new.exit86
  %13 = getelementptr inbounds i8, ptr %7, i64 296
  store i32 %2, ptr %13, align 8
  %14 = getelementptr inbounds i8, ptr %7, i64 292
  store i32 %0, ptr %14, align 4
  %15 = getelementptr inbounds i8, ptr %7, i64 300
  store i32 0, ptr %15, align 4
  %16 = getelementptr inbounds i8, ptr %7, i64 304
  store i32 0, ptr %16, align 8
  %17 = getelementptr inbounds i8, ptr %7, i64 308
  store i32 0, ptr %17, align 4
  %18 = getelementptr inbounds i8, ptr %7, i64 312
  store i32 %1, ptr %18, align 8
  %19 = getelementptr inbounds i8, ptr %7, i64 328
  store ptr %3, ptr %19, align 8
  %20 = getelementptr inbounds i8, ptr %7, i64 320
  store ptr null, ptr %20, align 8
  %21 = tail call i32 @pthread_mutex_init(ptr noundef nonnull %7, ptr noundef null) #12
  %.not77 = icmp eq i32 %21, 0
  br i1 %.not77, label %25, label %22

22:                                               ; preds = %12
  %23 = load ptr, ptr %8, align 8
  tail call void @free(ptr noundef %23) #12
  %24 = load ptr, ptr %10, align 8
  tail call void @free(ptr noundef %24) #12
  tail call void @free(ptr noundef nonnull %7) #12
  br label %83

25:                                               ; preds = %12
  %26 = getelementptr inbounds i8, ptr %7, i64 40
  %27 = tail call i32 @pthread_cond_init(ptr noundef nonnull %26, ptr noundef null) #12
  %.not78 = icmp eq i32 %27, 0
  br i1 %.not78, label %32, label %28

28:                                               ; preds = %25
  %29 = tail call i32 @pthread_mutex_destroy(ptr noundef nonnull %7) #12
  %30 = load ptr, ptr %8, align 8
  tail call void @free(ptr noundef %30) #12
  %31 = load ptr, ptr %10, align 8
  tail call void @free(ptr noundef %31) #12
  tail call void @free(ptr noundef nonnull %7) #12
  br label %83

32:                                               ; preds = %25
  %33 = getelementptr inbounds i8, ptr %7, i64 192
  %34 = tail call i32 @pthread_cond_init(ptr noundef nonnull %33, ptr noundef null) #12
  %.not79 = icmp eq i32 %34, 0
  br i1 %.not79, label %40, label %35

35:                                               ; preds = %32
  %36 = tail call i32 @pthread_cond_destroy(ptr noundef nonnull %26) #12
  %37 = tail call i32 @pthread_mutex_destroy(ptr noundef nonnull %7) #12
  %38 = load ptr, ptr %8, align 8
  tail call void @free(ptr noundef %38) #12
  %39 = load ptr, ptr %10, align 8
  tail call void @free(ptr noundef %39) #12
  tail call void @free(ptr noundef nonnull %7) #12
  br label %83

40:                                               ; preds = %32
  %41 = getelementptr inbounds i8, ptr %7, i64 240
  %42 = tail call i32 @pthread_cond_init(ptr noundef nonnull %41, ptr noundef null) #12
  %.not80 = icmp eq i32 %42, 0
  br i1 %.not80, label %49, label %43

43:                                               ; preds = %40
  %44 = tail call i32 @pthread_cond_destroy(ptr noundef nonnull %33) #12
  %45 = tail call i32 @pthread_cond_destroy(ptr noundef nonnull %26) #12
  %46 = tail call i32 @pthread_mutex_destroy(ptr noundef nonnull %7) #12
  %47 = load ptr, ptr %8, align 8
  tail call void @free(ptr noundef %47) #12
  %48 = load ptr, ptr %10, align 8
  tail call void @free(ptr noundef %48) #12
  tail call void @free(ptr noundef nonnull %7) #12
  br label %83

49:                                               ; preds = %40
  %50 = getelementptr inbounds i8, ptr %7, i64 144
  %51 = tail call i32 @pthread_cond_init(ptr noundef nonnull %50, ptr noundef null) #12
  %.not81 = icmp eq i32 %51, 0
  br i1 %.not81, label %59, label %52

52:                                               ; preds = %49
  %53 = tail call i32 @pthread_cond_destroy(ptr noundef nonnull %33) #12
  %54 = tail call i32 @pthread_cond_destroy(ptr noundef nonnull %41) #12
  %55 = tail call i32 @pthread_cond_destroy(ptr noundef nonnull %26) #12
  %56 = tail call i32 @pthread_mutex_destroy(ptr noundef nonnull %7) #12
  %57 = load ptr, ptr %8, align 8
  tail call void @free(ptr noundef %57) #12
  %58 = load ptr, ptr %10, align 8
  tail call void @free(ptr noundef %58) #12
  tail call void @free(ptr noundef nonnull %7) #12
  br label %83

59:                                               ; preds = %49
  %60 = getelementptr inbounds i8, ptr %7, i64 88
  %61 = tail call i32 @pthread_attr_init(ptr noundef nonnull %60) #12
  %.not82 = icmp eq i32 %61, 0
  br i1 %.not82, label %70, label %62

62:                                               ; preds = %59
  %63 = tail call i32 @pthread_cond_destroy(ptr noundef nonnull %33) #12
  %64 = tail call i32 @pthread_cond_destroy(ptr noundef nonnull %41) #12
  %65 = tail call i32 @pthread_cond_destroy(ptr noundef nonnull %50) #12
  %66 = tail call i32 @pthread_cond_destroy(ptr noundef nonnull %26) #12
  %67 = tail call i32 @pthread_mutex_destroy(ptr noundef nonnull %7) #12
  %68 = load ptr, ptr %8, align 8
  tail call void @free(ptr noundef %68) #12
  %69 = load ptr, ptr %10, align 8
  tail call void @free(ptr noundef %69) #12
  tail call void @free(ptr noundef nonnull %7) #12
  br label %83

70:                                               ; preds = %59
  %71 = tail call i32 @pthread_attr_setdetachstate(ptr noundef nonnull %60, i32 noundef 1) #12
  %.not83 = icmp eq i32 %71, 0
  br i1 %.not83, label %81, label %72

72:                                               ; preds = %70
  %73 = tail call i32 @pthread_cond_destroy(ptr noundef nonnull %33) #12
  %74 = tail call i32 @pthread_cond_destroy(ptr noundef nonnull %41) #12
  %75 = tail call i32 @pthread_attr_destroy(ptr noundef nonnull %60) #12
  %76 = tail call i32 @pthread_cond_destroy(ptr noundef nonnull %50) #12
  %77 = tail call i32 @pthread_cond_destroy(ptr noundef nonnull %26) #12
  %78 = tail call i32 @pthread_mutex_destroy(ptr noundef nonnull %7) #12
  %79 = load ptr, ptr %8, align 8
  tail call void @free(ptr noundef %79) #12
  %80 = load ptr, ptr %10, align 8
  tail call void @free(ptr noundef %80) #12
  tail call void @free(ptr noundef nonnull %7) #12
  br label %83

81:                                               ; preds = %70
  %82 = getelementptr inbounds i8, ptr %7, i64 288
  store i32 1, ptr %82, align 8
  tail call fastcc void @add_topools(ptr noundef nonnull %7)
  br label %83

83:                                               ; preds = %6, %4, %81, %72, %62, %52, %43, %35, %28, %22, %11, %9
  %.0 = phi ptr [ null, %22 ], [ null, %28 ], [ null, %35 ], [ null, %43 ], [ null, %52 ], [ null, %62 ], [ null, %72 ], [ %7, %81 ], [ null, %11 ], [ null, %9 ], [ null, %4 ], [ null, %6 ]
  ret ptr %.0
}